Archive member included because of file (symbol)

/usr/local/cross/i586-elf/lib/libx86.a(int86.o)
                              /home/antonio/Projects/aPlus/src/arch/screen.o (int86)
/usr/local/cross/i586-elf/lib/libc.a(lib_a-errno.o)
                              /home/antonio/Projects/aPlus/src/arch/task.o (__errno)
/usr/local/cross/i586-elf/lib/libc.a(lib_a-impure.o)
                              /usr/local/cross/i586-elf/lib/libc.a(lib_a-errno.o) (_impure_ptr)
/usr/local/cross/i586-elf/lib/libc.a(lib_a-memcpy.o)
                              /home/antonio/Projects/aPlus/src/arch/syscall.o (memcpy)
/usr/local/cross/i586-elf/lib/libc.a(lib_a-memset.o)
                              /home/antonio/Projects/aPlus/src/arch/task.o (memset)
/usr/local/cross/i586-elf/lib/libc.a(lib_a-mktime.o)
                              /home/antonio/Projects/aPlus/src/arch/desc.o (mktime)
/usr/local/cross/i586-elf/lib/libc.a(lib_a-mktm_r.o)
                              /usr/local/cross/i586-elf/lib/libc.a(lib_a-mktime.o) (__tzcalc_limits)
/usr/local/cross/i586-elf/lib/libc.a(lib_a-signal.o)
                              /home/antonio/Projects/aPlus/src/crt0.o (raise)
/usr/local/cross/i586-elf/lib/libc.a(lib_a-signalr.o)
                              /usr/local/cross/i586-elf/lib/libc.a(lib_a-signal.o) (_kill_r)
/usr/local/cross/i586-elf/lib/libc.a(lib_a-sprintf.o)
                              /home/antonio/Projects/aPlus/src/arch/syscall.o (sprintf)
/usr/local/cross/i586-elf/lib/libc.a(lib_a-strcat.o)
                              /home/antonio/Projects/aPlus/src/fs/procfs/procfs_cmdline.o (strcat)
/usr/local/cross/i586-elf/lib/libc.a(lib_a-strchr.o)
                              /home/antonio/Projects/aPlus/src/arch/syscall.o (strchr)
/usr/local/cross/i586-elf/lib/libc.a(lib_a-strcmp.o)
                              /home/antonio/Projects/aPlus/src/vfs.o (strcmp)
/usr/local/cross/i586-elf/lib/libc.a(lib_a-strcpy.o)
                              /home/antonio/Projects/aPlus/src/vfs.o (strcpy)
/usr/local/cross/i586-elf/lib/libc.a(lib_a-strdup.o)
                              /home/antonio/Projects/aPlus/src/arch/syscall.o (strdup)
/usr/local/cross/i586-elf/lib/libc.a(lib_a-strdup_r.o)
                              /usr/local/cross/i586-elf/lib/libc.a(lib_a-strdup.o) (_strdup_r)
/usr/local/cross/i586-elf/lib/libc.a(lib_a-strlen.o)
                              /home/antonio/Projects/aPlus/src/arch/syscall.o (strlen)
/usr/local/cross/i586-elf/lib/libc.a(lib_a-strncpy.o)
                              /home/antonio/Projects/aPlus/src/arch/syscall.o (strncpy)
/usr/local/cross/i586-elf/lib/libc.a(lib_a-svfprintf.o)
                              /usr/local/cross/i586-elf/lib/libc.a(lib_a-sprintf.o) (_svfprintf_r)
/usr/local/cross/i586-elf/lib/libc.a(lib_a-time.o)
                              /home/antonio/Projects/aPlus/src/vfs.o (time)
/usr/local/cross/i586-elf/lib/libc.a(lib_a-tzlock.o)
                              /usr/local/cross/i586-elf/lib/libc.a(lib_a-mktime.o) (__tz_lock)
/usr/local/cross/i586-elf/lib/libc.a(lib_a-tzvars.o)
                              /usr/local/cross/i586-elf/lib/libc.a(lib_a-mktime.o) (_daylight)
/usr/local/cross/i586-elf/lib/libc.a(lib_a-vsprintf.o)
                              /home/antonio/Projects/aPlus/src/arch/task.o (vsprintf)
/usr/local/cross/i586-elf/lib/libc.a(lib_a-div.o)
                              /usr/local/cross/i586-elf/lib/libc.a(lib_a-mktime.o) (div)
/usr/local/cross/i586-elf/lib/libc.a(lib_a-dtoa.o)
                              /usr/local/cross/i586-elf/lib/libc.a(lib_a-svfprintf.o) (_dtoa_r)
/usr/local/cross/i586-elf/lib/libc.a(lib_a-gettimeofdayr.o)
                              /usr/local/cross/i586-elf/lib/libc.a(lib_a-time.o) (_gettimeofday_r)
/usr/local/cross/i586-elf/lib/libc.a(lib_a-gettzinfo.o)
                              /usr/local/cross/i586-elf/lib/libc.a(lib_a-mktime.o) (__gettzinfo)
/usr/local/cross/i586-elf/lib/libc.a(lib_a-locale.o)
                              /usr/local/cross/i586-elf/lib/libc.a(lib_a-svfprintf.o) (_localeconv_r)
/usr/local/cross/i586-elf/lib/libc.a(lib_a-memchr.o)
                              /usr/local/cross/i586-elf/lib/libc.a(lib_a-svfprintf.o) (memchr)
/usr/local/cross/i586-elf/lib/libc.a(lib_a-mprec.o)
                              /usr/local/cross/i586-elf/lib/libc.a(lib_a-dtoa.o) (_Balloc)
/usr/local/cross/i586-elf/lib/libc.a(lib_a-s_fpclassify.o)
                              /usr/local/cross/i586-elf/lib/libc.a(lib_a-svfprintf.o) (__fpclassifyd)
/usr/local/cross/i586-elf/lib/libc.a(lib_a-svfiprintf.o)
                              /usr/local/cross/i586-elf/lib/libc.a(lib_a-svfprintf.o) (__ssprint_r)
/usr/local/cross/i586-elf/lib/libc.a(lib_a-memmove.o)
                              /usr/local/cross/i586-elf/lib/libc.a(lib_a-svfiprintf.o) (memmove)

Allocating common symbols
Common symbol       size              file

errno               0x4               /home/antonio/Projects/aPlus/src/crt0.o
fs_root             0x4               /home/antonio/Projects/aPlus/src/vfs.o

Memory Configuration

Name             Origin             Length             Attributes
*default*        0x0000000000000000 0xffffffffffffffff

Linker script and memory map

                0x0000000000100000                . = 0x100000

.multiboot      0x0000000000100000       0x20
                0x0000000000100000                multiboot = .
                0x0000000000100000                _multiboot = .
                0x0000000000100000                __multiboot = .
 *(.multiboot)
 .multiboot     0x0000000000100000       0x20 /home/antonio/Projects/aPlus/src/arch/loader.o

.text           0x0000000000100020     0xfe8d
                0x0000000000100020                text = .
                0x0000000000100020                _text = .
                0x0000000000100020                __text = .
 *(.text)
 .text          0x0000000000100020      0x6ab /home/antonio/Projects/aPlus/src/arch/task.o
                0x0000000000100155                task_init
                0x000000000010025b                task_create_with_data
                0x00000000001003ec                task_zombie
                0x0000000000100408                task_idle
                0x0000000000100426                task_wakeup
                0x0000000000100442                task_setpriority
                0x000000000010045d                sched_enable
                0x0000000000100469                sched_disable
                0x0000000000100475                schedule
                0x0000000000100556                task_create
                0x0000000000100578                task_exit2
                0x0000000000100621                task_exit
                0x000000000010063d                task_getbypid
                0x0000000000100677                task_wait
 .text          0x00000000001006cb     0x15a5 /home/antonio/Projects/aPlus/src/arch/syscall.o
                0x0000000000100891                syscall__exit
                0x00000000001008b4                syscall__chown
                0x000000000010091a                syscall__close
                0x000000000010099f                syscall(...)(long long,...)(char, void,...)
                0x0000000000100cdd                syscall__fork
                0x0000000000100cf5                syscall__fstat
                0x0000000000100eb1                syscall__getpid
                0x0000000000100ecd                syscall_gettimeofday
                0x0000000000100f2d                syscall__kill
                0x0000000000100f9a                syscall__link
                0x0000000000100fb2                syscall__lseek
                0x00000000001010d2                syscall__open
                0x0000000000101187                syscall__read
                0x000000000010124b                syscall__readlink
                0x00000000001012c7                syscall__stat
                0x00000000001013cb                syscall__symlink
                0x00000000001014d6                syscall__times
                0x0000000000101541                syscall__unlink
                0x0000000000101546                syscall__wait
                0x0000000000101567                syscall__write
                0x000000000010162b                syscall__readdir
                0x00000000001016f4                syscall_ioctl
                0x0000000000101798                syscall_mount
                0x0000000000101892                syscall_umount
                0x00000000001018fd                syscall_tell
                0x000000000010198e                syscall___get_argv
                0x00000000001019ab                syscall___get_env
                0x00000000001019c8                syscall_pipe
                0x0000000000101b0c                syscall_chdir
                0x0000000000101b6f                syscall___install_signal_handler
                0x0000000000101ba4                syscall_malloc
                0x0000000000101bb7                syscall_free
                0x0000000000101bca                syscall_handler
 .text          0x0000000000101c70      0x5cc /home/antonio/Projects/aPlus/src/arch/mm.o
                0x0000000000101d14                mm_alloc
                0x0000000000101d59                mm_free
                0x0000000000101d79                mm_enablepaging
                0x0000000000101da3                mm_disablepaging
                0x0000000000101dbd                vmm_switch
                0x0000000000101ded                vmm_map
                0x0000000000101eba                vmm_unmap
                0x0000000000101f22                mm_create_addrspace
                0x0000000000101f7f                mm_map_kernel
                0x0000000000101fae                kmalloc
                0x0000000000102032                kfree
                0x00000000001020da                mm_init
                0x0000000000102165                pagefault_handler
 .text          0x000000000010223c     0x10fe /home/antonio/Projects/aPlus/src/arch/desc.o
                0x0000000000102258                gdt_load
                0x0000000000102275                idt_load
                0x000000000010227d                isr_stub
                0x00000000001022a5                irq_stub
                0x00000000001022cd                isr_handler
                0x00000000001023af                irq_handler
                0x0000000000102416                pit_handler
                0x00000000001024dd                desc_init
                0x00000000001030d2                irq_set
                0x0000000000103104                irq_unset
                0x0000000000103169                pit_gettime
                0x000000000010332a                pit_getticks
 .text          0x000000000010333a      0x9a2 /home/antonio/Projects/aPlus/src/arch/screen.o
                0x0000000000103491                video_putc
                0x0000000000103767                video_puts
                0x00000000001037a8                video_getc
                0x000000000010382f                video_clear
                0x00000000001038a6                video_init
 .text          0x0000000000103cdc      0x66d /home/antonio/Projects/aPlus/src/vfs.o
                0x0000000000103d5e                fs_ioctl
                0x0000000000103da4                fs_read
                0x0000000000103dea                fs_write
                0x0000000000103e30                fs_trunc
                0x0000000000103e68                fs_allocate
                0x0000000000103ea7                fs_readdir
                0x0000000000103edf                fs_finddir
                0x0000000000103f1e                fs_creat
                0x0000000000103f64                fs_remove
                0x0000000000103fa3                fs_destroy
                0x0000000000103fdb                fs_nextinode
                0x0000000000103fee                fs_chroot
                0x0000000000104031                fs_mount
                0x00000000001040cf                fs_umount
                0x0000000000104139                vfs_init
 .text          0x0000000000104349      0x219 /home/antonio/Projects/aPlus/src/elf.o
                0x0000000000104399                elf_check_file
                0x0000000000104432                elf_check_supported
                0x00000000001044fd                elf_load_file
 .text          0x0000000000104562       0xbd /home/antonio/Projects/aPlus/src/panic.o
                0x00000000001045b2                __panic
 .text          0x000000000010461f      0x8a9 /home/antonio/Projects/aPlus/src/crt0.o
                0x000000000010461f                _exit
                0x0000000000104645                chown
                0x0000000000104684                close
                0x00000000001046b9                execve
                0x00000000001046ea                fork
                0x0000000000104721                fstat
                0x0000000000104754                getpid
                0x000000000010478b                gettimeofday
                0x00000000001047be                isatty
                0x00000000001047cf                kill
                0x0000000000104802                link
                0x0000000000104835                lseek
                0x0000000000104866                open
                0x0000000000104897                read
                0x00000000001048c8                readlink
                0x00000000001048f9                sbrk
                0x000000000010492f                stat
                0x0000000000104962                symlink
                0x0000000000104995                times
                0x00000000001049ca                unlink
                0x00000000001049ff                wait
                0x0000000000104a34                write
                0x0000000000104a65                readdir
                0x0000000000104aaf                ioctl
                0x0000000000104ae0                mount
                0x0000000000104b0d                umount2
                0x0000000000104b40                umount
                0x0000000000104b5b                tell
                0x0000000000104b90                __get_argv
                0x0000000000104bc7                __get_env
                0x0000000000104bfe                pipe
                0x0000000000104c33                chdir
                0x0000000000104c68                __install_signal_handler
                0x0000000000104c9d                malloc
                0x0000000000104cd2                free
                0x0000000000104cfb                opendir
                0x0000000000104d5c                closedir
                0x0000000000104d98                rewinddir
                0x0000000000104dba                seekdir
                0x0000000000104dda                telldir
                0x0000000000104dfc                scandir
                0x0000000000104e06                _malloc_r
                0x0000000000104e19                _free_r
                0x0000000000104e2c                _calloc_r
                0x0000000000104e4a                _realloc_r
                0x0000000000104eb5                __signal_handler__
 .text          0x0000000000104ec8      0x674 /home/antonio/Projects/aPlus/src/rootfs.o
                0x0000000000104ec8                rootfs_readdir
                0x0000000000104fb9                rootfs_finddir
                0x000000000010508e                rootfs_remove
                0x00000000001051de                rootfs_creat
                0x00000000001054a6                rootfs_init
 .text          0x000000000010553c      0x2dd /home/antonio/Projects/aPlus/src/tty.o
                0x000000000010558c                tty_ioctl
                0x000000000010560f                tty_read
                0x00000000001056d2                tty_write
                0x0000000000105731                tty_trunc
                0x0000000000105752                tty_init
 .text          0x0000000000105819       0xc3 /home/antonio/Projects/aPlus/src/spinlock.o
                0x0000000000105819                spinlock_lock
                0x0000000000105865                spinlock_unlock
                0x0000000000105893                spinlock_trylock
 .text          0x00000000001058dc       0xab /home/antonio/Projects/aPlus/src/main.o
                0x00000000001058dc                sysidle
                0x00000000001058f7                main
 .text          0x0000000000105987       0x58 /home/antonio/Projects/aPlus/src/fs/initfs/initfs_mount.o
                0x0000000000105987                initfs_mount
 .text          0x00000000001059df      0x510 /home/antonio/Projects/aPlus/src/fs/initfs/initfs.o
                0x00000000001059df                initfs_read
                0x0000000000105ae9                initfs_readdir
                0x0000000000105bdc                initfs_finddir
 .text          0x0000000000105eef      0x30f /home/antonio/Projects/aPlus/src/fs/ramdev.o
                0x0000000000105f3f                ramdev_read
                0x000000000010602e                ramdev_write
                0x000000000010611d                ramdev_destroy
                0x0000000000106148                ramdev_create
 .text          0x00000000001061fe      0x2af /home/antonio/Projects/aPlus/src/fs/procfs/procfs_task.o
                0x00000000001061fe                procfs_task_create
 .text          0x00000000001064ad      0x305 /home/antonio/Projects/aPlus/src/fs/procfs/procfs_cmdline.o
                0x00000000001064ad                procfs_cmdline_read
                0x0000000000106506                procfs_cmdline_destroy
                0x0000000000106531                procfs_cmdline_create
 .text          0x00000000001067b2       0xe4 /home/antonio/Projects/aPlus/src/fs/procfs/procfs_mount.o
                0x00000000001067b2                procfs_mount
 .text          0x0000000000106896      0x1fb /home/antonio/Projects/aPlus/src/fs/procfs/procfs_cwd.o
                0x0000000000106896                procfs_cwd_create
 .text          0x0000000000106a91      0x352 /home/antonio/Projects/aPlus/src/fs/procfs/procfs_filesystems.o
                0x0000000000106a91                procfs_filesystems_updatebuf
                0x0000000000106b35                procfs_filesystems_read
                0x0000000000106b8e                procfs_filesystems_destroy
                0x0000000000106bb9                procfs_filesystems_create
 .text          0x0000000000106de3      0x2ff /home/antonio/Projects/aPlus/src/fs/procfs/procfs_environ.o
                0x0000000000106de3                procfs_environ_read
                0x0000000000106e3c                procfs_environ_destroy
                0x0000000000106e67                procfs_environ_create
 .text          0x00000000001070e2      0x33a /home/antonio/Projects/aPlus/src/fs/procfs/procfs_meminfo.o
                0x0000000000107178                procfs_meminfo_read
                0x00000000001071e2                procfs_meminfo_destroy
                0x000000000010720d                procfs_meminfo_create
 .text          0x000000000010741c      0x92e /home/antonio/Projects/aPlus/src/fs/procfs/procfs.o
                0x00000000001074b3                procfs_add_inode
                0x0000000000107544                procfs_readdir
                0x00000000001076fd                procfs_finddir
                0x00000000001078a0                procfs_remove
                0x0000000000107a0f                procfs_creat
                0x0000000000107cd8                procfs_destroy
 .text          0x0000000000107d4a      0x650 /home/antonio/Projects/aPlus/src/fs/procfs/procfs_fd.o
                0x0000000000107d4a                procfs_fd_readdir
                0x0000000000107e7f                procfs_fd_finddir
                0x00000000001081b0                procfs_fd_create
 .text          0x000000000010839a      0x30b /home/antonio/Projects/aPlus/src/fs/pipe.o
                0x000000000010839a                pipe_read
                0x00000000001084ac                pipe_write
                0x0000000000108581                pipe_destroy
                0x00000000001085bf                pipe_create
 .text          0x00000000001086a5      0x138 /home/antonio/Projects/aPlus/src/initrd.o
                0x00000000001086f5                initrd_init
 *fill*         0x00000000001087dd        0x3 
 .text          0x00000000001087e0       0x68 /home/antonio/Projects/aPlus/src/arch/loader.o
                0x00000000001087e0                _start
                0x0000000000108840                mbd
                0x0000000000108844                magic
 *fill*         0x0000000000108848        0x8 
 .text          0x0000000000108850      0x220 /home/antonio/Projects/aPlus/src/arch/_desc.o
                0x0000000000108850                isr0
                0x0000000000108859                isr1
                0x0000000000108862                isr2
                0x000000000010886b                isr3
                0x0000000000108874                isr4
                0x000000000010887d                isr5
                0x0000000000108886                isr6
                0x000000000010888f                isr7
                0x0000000000108898                isr8
                0x000000000010889f                isr9
                0x00000000001088a8                isr10
                0x00000000001088af                isr11
                0x00000000001088b6                isr12
                0x00000000001088bd                isr13
                0x00000000001088c4                isr15
                0x00000000001088cd                isr16
                0x00000000001088d6                isr17
                0x00000000001088df                isr18
                0x00000000001088e8                isr19
                0x00000000001088f1                isr20
                0x00000000001088fa                isr21
                0x0000000000108903                isr22
                0x000000000010890c                isr23
                0x0000000000108915                isr24
                0x000000000010891e                isr25
                0x0000000000108927                isr26
                0x0000000000108930                isr27
                0x0000000000108939                isr28
                0x0000000000108942                isr29
                0x000000000010894b                isr30
                0x0000000000108954                isr31
                0x000000000010895d                irq1
                0x0000000000108966                irq2
                0x000000000010896f                irq3
                0x0000000000108978                irq4
                0x0000000000108981                irq5
                0x000000000010898a                irq6
                0x0000000000108993                irq7
                0x000000000010899c                irq8
                0x00000000001089a5                irq9
                0x00000000001089ae                irq10
                0x00000000001089b7                irq11
                0x00000000001089c0                irq12
                0x00000000001089c9                irq13
                0x00000000001089d2                irq14
                0x00000000001089db                irq15
                0x00000000001089e4                irq0
                0x0000000000108a15                isr0x80
                0x0000000000108a46                isr14
 .text          0x0000000000108a70      0x14c /usr/local/cross/i586-elf/lib/libx86.a(int86.o)
                0x0000000000108a70                int86
 *fill*         0x0000000000108bbc        0x4 
 .text          0x0000000000108bc0        0x6 /usr/local/cross/i586-elf/lib/libc.a(lib_a-errno.o)
                0x0000000000108bc0                __errno
 .text          0x0000000000108bc6        0x0 /usr/local/cross/i586-elf/lib/libc.a(lib_a-impure.o)
 *fill*         0x0000000000108bc6        0x2 
 .text          0x0000000000108bc8       0x48 /usr/local/cross/i586-elf/lib/libc.a(lib_a-memcpy.o)
                0x0000000000108bc8                memcpy
 .text          0x0000000000108c10       0x88 /usr/local/cross/i586-elf/lib/libc.a(lib_a-memset.o)
                0x0000000000108c10                memset
 *fill*         0x0000000000108c98        0x8 
 .text          0x0000000000108ca0      0x78a /usr/local/cross/i586-elf/lib/libc.a(lib_a-mktime.o)
                0x0000000000108fb0                mktime
 *fill*         0x000000000010942a        0x6 
 .text          0x0000000000109430      0x6a0 /usr/local/cross/i586-elf/lib/libc.a(lib_a-mktm_r.o)
                0x0000000000109430                __tzcalc_limits
                0x0000000000109670                _mktm_r
 .text          0x0000000000109ad0      0x29c /usr/local/cross/i586-elf/lib/libc.a(lib_a-signal.o)
                0x0000000000109ad0                _init_signal_r
                0x0000000000109b30                _signal_r
                0x0000000000109b90                _raise_r
                0x0000000000109c40                __sigtramp_r
                0x0000000000109ce0                raise
                0x0000000000109d00                signal
                0x0000000000109d30                _init_signal
                0x0000000000109d50                __sigtramp
 *fill*         0x0000000000109d6c        0x4 
 .text          0x0000000000109d70       0x55 /usr/local/cross/i586-elf/lib/libc.a(lib_a-signalr.o)
                0x0000000000109d70                _kill_r
                0x0000000000109dc0                _getpid_r
 *fill*         0x0000000000109dc5        0xb 
 .text          0x0000000000109dd0       0xdc /usr/local/cross/i586-elf/lib/libc.a(lib_a-sprintf.o)
                0x0000000000109dd0                _sprintf_r
                0x0000000000109e40                sprintf
 *fill*         0x0000000000109eac        0x4 
 .text          0x0000000000109eb0       0x6e /usr/local/cross/i586-elf/lib/libc.a(lib_a-strcat.o)
                0x0000000000109eb0                strcat
 *fill*         0x0000000000109f1e        0x2 
 .text          0x0000000000109f20       0xfc /usr/local/cross/i586-elf/lib/libc.a(lib_a-strchr.o)
                0x0000000000109f20                strchr
 *fill*         0x000000000010a01c        0x4 
 .text          0x000000000010a020       0x73 /usr/local/cross/i586-elf/lib/libc.a(lib_a-strcmp.o)
                0x000000000010a020                strcmp
 *fill*         0x000000000010a093        0xd 
 .text          0x000000000010a0a0       0x60 /usr/local/cross/i586-elf/lib/libc.a(lib_a-strcpy.o)
                0x000000000010a0a0                strcpy
 .text          0x000000000010a100       0x1c /usr/local/cross/i586-elf/lib/libc.a(lib_a-strdup.o)
                0x000000000010a100                strdup
 *fill*         0x000000000010a11c        0x4 
 .text          0x000000000010a120       0x44 /usr/local/cross/i586-elf/lib/libc.a(lib_a-strdup_r.o)
                0x000000000010a120                _strdup_r
 *fill*         0x000000000010a164        0xc 
 .text          0x000000000010a170       0x79 /usr/local/cross/i586-elf/lib/libc.a(lib_a-strlen.o)
                0x000000000010a170                strlen
 *fill*         0x000000000010a1e9        0x7 
 .text          0x000000000010a1f0       0xa0 /usr/local/cross/i586-elf/lib/libc.a(lib_a-strncpy.o)
                0x000000000010a1f0                strncpy
 .text          0x000000000010a290     0x20de /usr/local/cross/i586-elf/lib/libc.a(lib_a-svfprintf.o)
                0x000000000010a290                _svfprintf_r
 *fill*         0x000000000010c36e        0x2 
 .text          0x000000000010c370       0x45 /usr/local/cross/i586-elf/lib/libc.a(lib_a-time.o)
                0x000000000010c370                time
 *fill*         0x000000000010c3b5        0xb 
 .text          0x000000000010c3c0       0x11 /usr/local/cross/i586-elf/lib/libc.a(lib_a-tzlock.o)
                0x000000000010c3c0                __tz_lock
                0x000000000010c3d0                __tz_unlock
 .text          0x000000000010c3d1        0x0 /usr/local/cross/i586-elf/lib/libc.a(lib_a-tzvars.o)
 *fill*         0x000000000010c3d1        0xf 
 .text          0x000000000010c3e0       0x9c /usr/local/cross/i586-elf/lib/libc.a(lib_a-vsprintf.o)
                0x000000000010c3e0                _vsprintf_r
                0x000000000010c450                vsprintf
 *fill*         0x000000000010c47c        0x4 
 .text          0x000000000010c480       0x5f /usr/local/cross/i586-elf/lib/libc.a(lib_a-div.o)
                0x000000000010c480                div
 *fill*         0x000000000010c4df        0x1 
 .text          0x000000000010c4e0     0x16f7 /usr/local/cross/i586-elf/lib/libc.a(lib_a-dtoa.o)
                0x000000000010c6f0                _dtoa_r
 *fill*         0x000000000010dbd7        0x9 
 .text          0x000000000010dbe0       0x44 /usr/local/cross/i586-elf/lib/libc.a(lib_a-gettimeofdayr.o)
                0x000000000010dbe0                _gettimeofday_r
 *fill*         0x000000000010dc24        0xc 
 .text          0x000000000010dc30        0x6 /usr/local/cross/i586-elf/lib/libc.a(lib_a-gettzinfo.o)
                0x000000000010dc30                __gettzinfo
 *fill*         0x000000000010dc36        0xa 
 .text          0x000000000010dc40       0xf6 /usr/local/cross/i586-elf/lib/libc.a(lib_a-locale.o)
                0x000000000010dc40                _setlocale_r
                0x000000000010dcb0                __locale_charset
                0x000000000010dcc0                __locale_mb_cur_max
                0x000000000010dcd0                __locale_msgcharset
                0x000000000010dce0                __locale_cjk_lang
                0x000000000010dcf0                _localeconv_r
                0x000000000010dd00                setlocale
                0x000000000010dd30                localeconv
 *fill*         0x000000000010dd36        0xa 
 .text          0x000000000010dd40       0x95 /usr/local/cross/i586-elf/lib/libc.a(lib_a-memchr.o)
                0x000000000010dd40                memchr
 *fill*         0x000000000010ddd5        0xb 
 .text          0x000000000010dde0      0xf38 /usr/local/cross/i586-elf/lib/libc.a(lib_a-mprec.o)
                0x000000000010dde0                _Balloc
                0x000000000010de80                _Bfree
                0x000000000010dea0                __multadd
                0x000000000010dfb0                __s2b
                0x000000000010e0c0                __hi0bits
                0x000000000010e130                __lo0bits
                0x000000000010e1c0                __i2b
                0x000000000010e1f0                __multiply
                0x000000000010e410                __pow5mult
                0x000000000010e530                __lshift
                0x000000000010e680                __mcmp
                0x000000000010e6e0                __mdiff
                0x000000000010e870                __ulp
                0x000000000010e900                __b2d
                0x000000000010ea10                __d2b
                0x000000000010eb40                __ratio
                0x000000000010ebe0                _mprec_log10
                0x000000000010ec20                __copybits
                0x000000000010ec90                __any_on
 *fill*         0x000000000010ed18        0x8 
 .text          0x000000000010ed20       0x61 /usr/local/cross/i586-elf/lib/libc.a(lib_a-s_fpclassify.o)
                0x000000000010ed20                __fpclassifyd
 *fill*         0x000000000010ed81        0xf 
 .text          0x000000000010ed90     0x1082 /usr/local/cross/i586-elf/lib/libc.a(lib_a-svfiprintf.o)
                0x000000000010ed90                __ssprint_r
                0x000000000010efd0                _svfiprintf_r
 *fill*         0x000000000010fe12        0xe 
 .text          0x000000000010fe20       0x8d /usr/local/cross/i586-elf/lib/libc.a(lib_a-memmove.o)
                0x000000000010fe20                memmove

.iplt           0x000000000010feb0        0x0
 .iplt          0x0000000000000000        0x0 /home/antonio/Projects/aPlus/src/arch/task.o

.rodata         0x000000000010fec0      0xd0c
                0x000000000010fec0                rodata = .
                0x000000000010fec0                _rodata = .
                0x000000000010fec0                __rodata = .
 *(.rodata*)
 .rodata        0x000000000010fec0       0x20 /home/antonio/Projects/aPlus/src/arch/task.o
 .rodata        0x000000000010fee0       0x97 /home/antonio/Projects/aPlus/src/arch/syscall.o
 *fill*         0x000000000010ff77        0x1 
 .rodata        0x000000000010ff78       0x9c /home/antonio/Projects/aPlus/src/arch/mm.o
 .rodata        0x0000000000110014      0x183 /home/antonio/Projects/aPlus/src/arch/desc.o
 *fill*         0x0000000000110197        0x1 
 .rodata        0x0000000000110198       0x38 /home/antonio/Projects/aPlus/src/arch/screen.o
 .rodata        0x00000000001101d0        0x2 /home/antonio/Projects/aPlus/src/vfs.o
 *fill*         0x00000000001101d2        0x2 
 .rodata        0x00000000001101d4      0x12e /home/antonio/Projects/aPlus/src/elf.o
 *fill*         0x0000000000110302        0x2 
 .rodata        0x0000000000110304       0x20 /home/antonio/Projects/aPlus/src/panic.o
 .rodata        0x0000000000110324       0x34 /home/antonio/Projects/aPlus/src/rootfs.o
 .rodata        0x0000000000110358       0x50 /home/antonio/Projects/aPlus/src/tty.o
 .rodata        0x00000000001103a8       0x4f /home/antonio/Projects/aPlus/src/main.o
 .rodata        0x00000000001103f7        0x5 /home/antonio/Projects/aPlus/src/fs/initfs/initfs.o
 .rodata        0x00000000001103fc       0x29 /home/antonio/Projects/aPlus/src/fs/ramdev.o
 .rodata        0x0000000000110425        0x3 /home/antonio/Projects/aPlus/src/fs/procfs/procfs_task.o
 .rodata        0x0000000000110428        0xa /home/antonio/Projects/aPlus/src/fs/procfs/procfs_cmdline.o
 .rodata        0x0000000000110432        0x4 /home/antonio/Projects/aPlus/src/fs/procfs/procfs_cwd.o
 .rodata        0x0000000000110436       0x10 /home/antonio/Projects/aPlus/src/fs/procfs/procfs_filesystems.o
 .rodata        0x0000000000110446        0xa /home/antonio/Projects/aPlus/src/fs/procfs/procfs_environ.o
 .rodata        0x0000000000110450       0x90 /home/antonio/Projects/aPlus/src/fs/procfs/procfs_meminfo.o
 .rodata        0x00000000001104e0        0x8 /home/antonio/Projects/aPlus/src/fs/procfs/procfs.o
 .rodata        0x00000000001104e8        0xb /home/antonio/Projects/aPlus/src/fs/procfs/procfs_fd.o
 *fill*         0x00000000001104f3        0x1 
 .rodata        0x00000000001104f4       0xa5 /home/antonio/Projects/aPlus/src/initrd.o
 *fill*         0x0000000000110599        0x3 
 .rodata        0x000000000011059c        0x4 /usr/local/cross/i586-elf/lib/libc.a(lib_a-impure.o)
                0x000000000011059c                _global_impure_ptr
 .rodata.str1.1
                0x00000000001105a0        0x2 /usr/local/cross/i586-elf/lib/libc.a(lib_a-impure.o)
 *fill*         0x00000000001105a2       0x1e 
 .rodata        0x00000000001105c0       0x70 /usr/local/cross/i586-elf/lib/libc.a(lib_a-mktime.o)
 *fill*         0x0000000000110630       0x10 
 .rodata        0x0000000000110640       0x80 /usr/local/cross/i586-elf/lib/libc.a(lib_a-mktm_r.o)
 .rodata.str1.1
                0x00000000001106c0       0x3b /usr/local/cross/i586-elf/lib/libc.a(lib_a-svfprintf.o)
 *fill*         0x00000000001106fb        0x1 
 .rodata        0x00000000001106fc      0x184 /usr/local/cross/i586-elf/lib/libc.a(lib_a-svfprintf.o)
 .rodata.str1.1
                0x0000000000110880        0x4 /usr/local/cross/i586-elf/lib/libc.a(lib_a-tzvars.o)
 .rodata.str1.1
                0x0000000000110884        0xd /usr/local/cross/i586-elf/lib/libc.a(lib_a-dtoa.o)
                                          0xf (size before relaxing)
 *fill*         0x0000000000110891        0x3 
 .rodata.cst4   0x0000000000110894       0x18 /usr/local/cross/i586-elf/lib/libc.a(lib_a-dtoa.o)
 *fill*         0x00000000001108ac        0x4 
 .rodata.cst8   0x00000000001108b0       0x18 /usr/local/cross/i586-elf/lib/libc.a(lib_a-dtoa.o)
 .rodata.str1.1
                0x00000000001108c8        0x8 /usr/local/cross/i586-elf/lib/libc.a(lib_a-locale.o)
                                          0xb (size before relaxing)
 *fill*         0x00000000001108d0       0x10 
 .rodata        0x00000000001108e0      0x168 /usr/local/cross/i586-elf/lib/libc.a(lib_a-mprec.o)
                0x0000000000110900                __mprec_tinytens
                0x0000000000110940                __mprec_bigtens
                0x0000000000110980                __mprec_tens
 .rodata.cst4   0x0000000000000000        0x4 /usr/local/cross/i586-elf/lib/libc.a(lib_a-mprec.o)
 .rodata.str1.1
                0x0000000000000000       0x29 /usr/local/cross/i586-elf/lib/libc.a(lib_a-svfiprintf.o)
 .rodata        0x0000000000110a48      0x184 /usr/local/cross/i586-elf/lib/libc.a(lib_a-svfiprintf.o)

.eh_frame       0x0000000000110bcc     0x2884
 .eh_frame      0x0000000000110bcc      0x244 /home/antonio/Projects/aPlus/src/arch/task.o
 .eh_frame      0x0000000000110e10      0x474 /home/antonio/Projects/aPlus/src/arch/syscall.o
                                        0x48c (size before relaxing)
 .eh_frame      0x0000000000111284      0x280 /home/antonio/Projects/aPlus/src/arch/mm.o
                                        0x298 (size before relaxing)
 .eh_frame      0x0000000000111504      0x154 /home/antonio/Projects/aPlus/src/arch/desc.o
                                        0x16c (size before relaxing)
 .eh_frame      0x0000000000111658      0x128 /home/antonio/Projects/aPlus/src/arch/screen.o
                                        0x140 (size before relaxing)
 .eh_frame      0x0000000000111780      0x20c /home/antonio/Projects/aPlus/src/vfs.o
                                        0x224 (size before relaxing)
 .eh_frame      0x000000000011198c       0x80 /home/antonio/Projects/aPlus/src/elf.o
                                         0x98 (size before relaxing)
 .eh_frame      0x0000000000111a0c       0x3c /home/antonio/Projects/aPlus/src/panic.o
                                         0x54 (size before relaxing)
 .eh_frame      0x0000000000111a48      0x734 /home/antonio/Projects/aPlus/src/crt0.o
                                        0x74c (size before relaxing)
 .eh_frame      0x000000000011217c       0xa0 /home/antonio/Projects/aPlus/src/rootfs.o
                                         0xb8 (size before relaxing)
 .eh_frame      0x000000000011221c       0xc0 /home/antonio/Projects/aPlus/src/tty.o
                                         0xd8 (size before relaxing)
 .eh_frame      0x00000000001122dc       0x60 /home/antonio/Projects/aPlus/src/spinlock.o
                                         0x78 (size before relaxing)
 .eh_frame      0x000000000011233c       0x3c /home/antonio/Projects/aPlus/src/main.o
                                         0x54 (size before relaxing)
 .eh_frame      0x0000000000112378       0x20 /home/antonio/Projects/aPlus/src/fs/initfs/initfs_mount.o
                                         0x38 (size before relaxing)
 .eh_frame      0x0000000000112398       0x60 /home/antonio/Projects/aPlus/src/fs/initfs/initfs.o
                                         0x78 (size before relaxing)
 .eh_frame      0x00000000001123f8       0xa0 /home/antonio/Projects/aPlus/src/fs/ramdev.o
                                         0xb8 (size before relaxing)
 .eh_frame      0x0000000000112498       0x20 /home/antonio/Projects/aPlus/src/fs/procfs/procfs_task.o
                                         0x38 (size before relaxing)
 .eh_frame      0x00000000001124b8       0x60 /home/antonio/Projects/aPlus/src/fs/procfs/procfs_cmdline.o
                                         0x78 (size before relaxing)
 .eh_frame      0x0000000000112518       0x20 /home/antonio/Projects/aPlus/src/fs/procfs/procfs_mount.o
                                         0x38 (size before relaxing)
 .eh_frame      0x0000000000112538       0x20 /home/antonio/Projects/aPlus/src/fs/procfs/procfs_cwd.o
                                         0x38 (size before relaxing)
 .eh_frame      0x0000000000112558       0x80 /home/antonio/Projects/aPlus/src/fs/procfs/procfs_filesystems.o
                                         0x98 (size before relaxing)
 .eh_frame      0x00000000001125d8       0x60 /home/antonio/Projects/aPlus/src/fs/procfs/procfs_environ.o
                                         0x78 (size before relaxing)
 .eh_frame      0x0000000000112638       0x80 /home/antonio/Projects/aPlus/src/fs/procfs/procfs_meminfo.o
                                         0x98 (size before relaxing)
 .eh_frame      0x00000000001126b8      0x100 /home/antonio/Projects/aPlus/src/fs/procfs/procfs.o
                                        0x118 (size before relaxing)
 .eh_frame      0x00000000001127b8       0x60 /home/antonio/Projects/aPlus/src/fs/procfs/procfs_fd.o
                                         0x78 (size before relaxing)
 .eh_frame      0x0000000000112818       0x8c /home/antonio/Projects/aPlus/src/fs/pipe.o
                                         0xa4 (size before relaxing)
 .eh_frame      0x00000000001128a4       0x40 /home/antonio/Projects/aPlus/src/initrd.o
                                         0x58 (size before relaxing)
 .eh_frame      0x00000000001128e4       0x14 /usr/local/cross/i586-elf/lib/libc.a(lib_a-errno.o)
                                         0x2c (size before relaxing)
 .eh_frame      0x00000000001128f8       0x70 /usr/local/cross/i586-elf/lib/libc.a(lib_a-mktime.o)
                                         0x88 (size before relaxing)
 .eh_frame      0x0000000000112968       0x98 /usr/local/cross/i586-elf/lib/libc.a(lib_a-mktm_r.o)
                                         0xb0 (size before relaxing)
 .eh_frame      0x0000000000112a00      0x138 /usr/local/cross/i586-elf/lib/libc.a(lib_a-signal.o)
                                        0x150 (size before relaxing)
 .eh_frame      0x0000000000112b38       0x34 /usr/local/cross/i586-elf/lib/libc.a(lib_a-signalr.o)
                                         0x4c (size before relaxing)
 .eh_frame      0x0000000000112b6c       0x38 /usr/local/cross/i586-elf/lib/libc.a(lib_a-sprintf.o)
                                         0x50 (size before relaxing)
 .eh_frame      0x0000000000112ba4       0x2c /usr/local/cross/i586-elf/lib/libc.a(lib_a-strcat.o)
                                         0x44 (size before relaxing)
 .eh_frame      0x0000000000112bd0       0x24 /usr/local/cross/i586-elf/lib/libc.a(lib_a-strcmp.o)
                                         0x3c (size before relaxing)
 .eh_frame      0x0000000000112bf4       0x30 /usr/local/cross/i586-elf/lib/libc.a(lib_a-strcpy.o)
                                         0x48 (size before relaxing)
 .eh_frame      0x0000000000112c24       0x18 /usr/local/cross/i586-elf/lib/libc.a(lib_a-strdup.o)
                                         0x30 (size before relaxing)
 .eh_frame      0x0000000000112c3c       0x34 /usr/local/cross/i586-elf/lib/libc.a(lib_a-strdup_r.o)
                                         0x4c (size before relaxing)
 .eh_frame      0x0000000000112c70       0x4c /usr/local/cross/i586-elf/lib/libc.a(lib_a-strncpy.o)
                                         0x64 (size before relaxing)
 .eh_frame      0x0000000000112cbc       0x44 /usr/local/cross/i586-elf/lib/libc.a(lib_a-svfprintf.o)
                                         0x5c (size before relaxing)
 .eh_frame      0x0000000000112d00       0x24 /usr/local/cross/i586-elf/lib/libc.a(lib_a-time.o)
                                         0x3c (size before relaxing)
 .eh_frame      0x0000000000112d24       0x28 /usr/local/cross/i586-elf/lib/libc.a(lib_a-tzlock.o)
                                         0x40 (size before relaxing)
 .eh_frame      0x0000000000112d4c       0x34 /usr/local/cross/i586-elf/lib/libc.a(lib_a-vsprintf.o)
                                         0x4c (size before relaxing)
 .eh_frame      0x0000000000112d80       0x14 /usr/local/cross/i586-elf/lib/libc.a(lib_a-div.o)
                                         0x2c (size before relaxing)
 .eh_frame      0x0000000000112d94       0xc4 /usr/local/cross/i586-elf/lib/libc.a(lib_a-dtoa.o)
                                         0xdc (size before relaxing)
 .eh_frame      0x0000000000112e58       0x20 /usr/local/cross/i586-elf/lib/libc.a(lib_a-gettimeofdayr.o)
                                         0x38 (size before relaxing)
 .eh_frame      0x0000000000112e78       0x14 /usr/local/cross/i586-elf/lib/libc.a(lib_a-gettzinfo.o)
                                         0x2c (size before relaxing)
 .eh_frame      0x0000000000112e8c       0xbc /usr/local/cross/i586-elf/lib/libc.a(lib_a-locale.o)
                                         0xd4 (size before relaxing)
 .eh_frame      0x0000000000112f48      0x438 /usr/local/cross/i586-elf/lib/libc.a(lib_a-mprec.o)
                                        0x450 (size before relaxing)
 .eh_frame      0x0000000000113380       0x20 /usr/local/cross/i586-elf/lib/libc.a(lib_a-s_fpclassify.o)
                                         0x38 (size before relaxing)
 .eh_frame      0x00000000001133a0       0xb0 /usr/local/cross/i586-elf/lib/libc.a(lib_a-svfiprintf.o)
                                         0xc8 (size before relaxing)

.rel.dyn        0x0000000000113450        0x0
 .rel.iplt      0x0000000000000000        0x0 /home/antonio/Projects/aPlus/src/arch/task.o
 .rel.text      0x0000000000000000        0x0 /home/antonio/Projects/aPlus/src/arch/task.o
 .rel.multiboot
                0x0000000000000000        0x0 /home/antonio/Projects/aPlus/src/arch/task.o

.data           0x0000000000113460      0x7dc
                0x0000000000113460                data = .
                0x0000000000113460                _data = .
                0x0000000000113460                __data = .
 *(.data)
 .data          0x0000000000113460        0x0 /home/antonio/Projects/aPlus/src/arch/task.o
 .data          0x0000000000113460        0x0 /home/antonio/Projects/aPlus/src/arch/syscall.o
 .data          0x0000000000113460        0x0 /home/antonio/Projects/aPlus/src/arch/mm.o
 .data          0x0000000000113460       0x80 /home/antonio/Projects/aPlus/src/arch/desc.o
 .data          0x00000000001134e0      0x206 /home/antonio/Projects/aPlus/src/arch/screen.o
                0x00000000001134e0                vkscan
                0x00000000001136e0                videoattr
 .data          0x00000000001136e6        0x0 /home/antonio/Projects/aPlus/src/vfs.o
 .data          0x00000000001136e6        0x0 /home/antonio/Projects/aPlus/src/elf.o
 .data          0x00000000001136e6        0x0 /home/antonio/Projects/aPlus/src/panic.o
 .data          0x00000000001136e6        0x0 /home/antonio/Projects/aPlus/src/crt0.o
 .data          0x00000000001136e6        0x0 /home/antonio/Projects/aPlus/src/rootfs.o
 .data          0x00000000001136e6        0x1 /home/antonio/Projects/aPlus/src/tty.o
 .data          0x00000000001136e7        0x0 /home/antonio/Projects/aPlus/src/spinlock.o
 *fill*         0x00000000001136e7        0x1 
 .data          0x00000000001136e8       0x20 /home/antonio/Projects/aPlus/src/main.o
 .data          0x0000000000113708        0x0 /home/antonio/Projects/aPlus/src/fs/initfs/initfs_mount.o
 .data          0x0000000000113708        0x0 /home/antonio/Projects/aPlus/src/fs/initfs/initfs.o
 .data          0x0000000000113708        0x0 /home/antonio/Projects/aPlus/src/fs/ramdev.o
 .data          0x0000000000113708        0x0 /home/antonio/Projects/aPlus/src/fs/procfs/procfs_task.o
 .data          0x0000000000113708        0x0 /home/antonio/Projects/aPlus/src/fs/procfs/procfs_cmdline.o
 .data          0x0000000000113708        0x0 /home/antonio/Projects/aPlus/src/fs/procfs/procfs_mount.o
 .data          0x0000000000113708        0x0 /home/antonio/Projects/aPlus/src/fs/procfs/procfs_cwd.o
 .data          0x0000000000113708        0x0 /home/antonio/Projects/aPlus/src/fs/procfs/procfs_filesystems.o
 .data          0x0000000000113708        0x0 /home/antonio/Projects/aPlus/src/fs/procfs/procfs_environ.o
 .data          0x0000000000113708        0x0 /home/antonio/Projects/aPlus/src/fs/procfs/procfs_meminfo.o
 .data          0x0000000000113708        0x0 /home/antonio/Projects/aPlus/src/fs/procfs/procfs.o
 .data          0x0000000000113708        0x0 /home/antonio/Projects/aPlus/src/fs/procfs/procfs_fd.o
 .data          0x0000000000113708        0x0 /home/antonio/Projects/aPlus/src/fs/pipe.o
 .data          0x0000000000113708        0x0 /home/antonio/Projects/aPlus/src/initrd.o
 .data          0x0000000000113708        0x0 /usr/local/cross/i586-elf/lib/libc.a(lib_a-errno.o)
 *fill*         0x0000000000113708       0x18 
 .data          0x0000000000113720      0x444 /usr/local/cross/i586-elf/lib/libc.a(lib_a-impure.o)
                0x0000000000113720                _impure_ptr
 .data          0x0000000000113b64        0x0 /usr/local/cross/i586-elf/lib/libc.a(lib_a-memcpy.o)
 .data          0x0000000000113b64        0x0 /usr/local/cross/i586-elf/lib/libc.a(lib_a-memset.o)
 .data          0x0000000000113b64        0x0 /usr/local/cross/i586-elf/lib/libc.a(lib_a-mktime.o)
 .data          0x0000000000113b64        0x0 /usr/local/cross/i586-elf/lib/libc.a(lib_a-mktm_r.o)
 .data          0x0000000000113b64        0x0 /usr/local/cross/i586-elf/lib/libc.a(lib_a-signal.o)
 .data          0x0000000000113b64        0x0 /usr/local/cross/i586-elf/lib/libc.a(lib_a-signalr.o)
 .data          0x0000000000113b64        0x0 /usr/local/cross/i586-elf/lib/libc.a(lib_a-sprintf.o)
 .data          0x0000000000113b64        0x0 /usr/local/cross/i586-elf/lib/libc.a(lib_a-strcat.o)
 .data          0x0000000000113b64        0x0 /usr/local/cross/i586-elf/lib/libc.a(lib_a-strchr.o)
 .data          0x0000000000113b64        0x0 /usr/local/cross/i586-elf/lib/libc.a(lib_a-strcmp.o)
 .data          0x0000000000113b64        0x0 /usr/local/cross/i586-elf/lib/libc.a(lib_a-strcpy.o)
 .data          0x0000000000113b64        0x0 /usr/local/cross/i586-elf/lib/libc.a(lib_a-strdup.o)
 .data          0x0000000000113b64        0x0 /usr/local/cross/i586-elf/lib/libc.a(lib_a-strdup_r.o)
 .data          0x0000000000113b64        0x0 /usr/local/cross/i586-elf/lib/libc.a(lib_a-strlen.o)
 .data          0x0000000000113b64        0x0 /usr/local/cross/i586-elf/lib/libc.a(lib_a-strncpy.o)
 .data          0x0000000000113b64        0x0 /usr/local/cross/i586-elf/lib/libc.a(lib_a-svfprintf.o)
 .data          0x0000000000113b64        0x0 /usr/local/cross/i586-elf/lib/libc.a(lib_a-time.o)
 .data          0x0000000000113b64        0x0 /usr/local/cross/i586-elf/lib/libc.a(lib_a-tzlock.o)
 .data          0x0000000000113b64        0x8 /usr/local/cross/i586-elf/lib/libc.a(lib_a-tzvars.o)
                0x0000000000113b64                _tzname
 .data          0x0000000000113b6c        0x0 /usr/local/cross/i586-elf/lib/libc.a(lib_a-vsprintf.o)
 .data          0x0000000000113b6c        0x0 /usr/local/cross/i586-elf/lib/libc.a(lib_a-div.o)
 .data          0x0000000000113b6c        0x0 /usr/local/cross/i586-elf/lib/libc.a(lib_a-dtoa.o)
 .data          0x0000000000113b6c        0x0 /usr/local/cross/i586-elf/lib/libc.a(lib_a-gettimeofdayr.o)
 *fill*         0x0000000000113b6c       0x14 
 .data          0x0000000000113b80       0x40 /usr/local/cross/i586-elf/lib/libc.a(lib_a-gettzinfo.o)
 .data          0x0000000000113bc0       0x7c /usr/local/cross/i586-elf/lib/libc.a(lib_a-locale.o)
                0x0000000000113c38                __mb_cur_max
 .data          0x0000000000113c3c        0x0 /usr/local/cross/i586-elf/lib/libc.a(lib_a-memchr.o)
 .data          0x0000000000113c3c        0x0 /usr/local/cross/i586-elf/lib/libc.a(lib_a-mprec.o)
 .data          0x0000000000113c3c        0x0 /usr/local/cross/i586-elf/lib/libc.a(lib_a-s_fpclassify.o)
 .data          0x0000000000113c3c        0x0 /usr/local/cross/i586-elf/lib/libc.a(lib_a-svfiprintf.o)
 .data          0x0000000000113c3c        0x0 /usr/local/cross/i586-elf/lib/libc.a(lib_a-memmove.o)

.igot.plt       0x0000000000113c3c        0x0
 .igot.plt      0x0000000000000000        0x0 /home/antonio/Projects/aPlus/src/arch/task.o

.bss            0x0000000000113c40     0x6a14
                0x0000000000113c40                bss = .
                0x0000000000113c40                _bss = .
                0x0000000000113c40                __bss = .
 *(COMMON)
 COMMON         0x0000000000113c40        0x4 /home/antonio/Projects/aPlus/src/vfs.o
                0x0000000000113c40                fs_root
 COMMON         0x0000000000113c44        0x4 /home/antonio/Projects/aPlus/src/crt0.o
                0x0000000000113c44                errno
 *(.bss)
 *fill*         0x0000000000113c48       0x18 
 .bss           0x0000000000113c60      0x420 /home/antonio/Projects/aPlus/src/arch/task.o
                0x0000000000113c60                current_task
                0x0000000000113c64                task_queue
                0x0000000000113c68                kernel_task
 .bss           0x0000000000114080      0x404 /home/antonio/Projects/aPlus/src/arch/syscall.o
 *fill*         0x0000000000114484       0x1c 
 .bss           0x00000000001144a0      0x420 /home/antonio/Projects/aPlus/src/arch/mm.o
                0x00000000001144a0                mm_totalmemory
                0x00000000001144a4                mm_usedmemory
                0x00000000001144a8                mm_directory
                0x00000000001144ac                kernel_directory
 .bss           0x00000000001148c0      0x8e4 /home/antonio/Projects/aPlus/src/arch/desc.o
                0x00000000001148c0                keyboard_ready
 .bss           0x00000000001151a4       0x1c /home/antonio/Projects/aPlus/src/arch/screen.o
                0x00000000001151a4                videopos
 .bss           0x00000000001151c0        0x4 /home/antonio/Projects/aPlus/src/vfs.o
 *fill*         0x00000000001151c4       0x1c 
 .bss           0x00000000001151e0      0x400 /home/antonio/Projects/aPlus/src/elf.o
 .bss           0x00000000001155e0      0x400 /home/antonio/Projects/aPlus/src/panic.o
 .bss           0x00000000001159e0        0x4 /home/antonio/Projects/aPlus/src/crt0.o
 .bss           0x00000000001159e4        0x4 /home/antonio/Projects/aPlus/src/rootfs.o
                0x00000000001159e4                rootfs_queue
 *fill*         0x00000000001159e8       0x18 
 .bss           0x0000000000115a00      0x400 /home/antonio/Projects/aPlus/src/tty.o
 .bss           0x0000000000115e00        0x0 /home/antonio/Projects/aPlus/src/spinlock.o
 .bss           0x0000000000115e00        0x4 /home/antonio/Projects/aPlus/src/main.o
                0x0000000000115e00                end_kernel
 .bss           0x0000000000115e04        0x0 /home/antonio/Projects/aPlus/src/fs/initfs/initfs_mount.o
 .bss           0x0000000000115e04        0x0 /home/antonio/Projects/aPlus/src/fs/initfs/initfs.o
 *fill*         0x0000000000115e04       0x1c 
 .bss           0x0000000000115e20      0x400 /home/antonio/Projects/aPlus/src/fs/ramdev.o
 .bss           0x0000000000116220        0x0 /home/antonio/Projects/aPlus/src/fs/procfs/procfs_task.o
 .bss           0x0000000000116220        0x0 /home/antonio/Projects/aPlus/src/fs/procfs/procfs_cmdline.o
 .bss           0x0000000000116220        0x0 /home/antonio/Projects/aPlus/src/fs/procfs/procfs_mount.o
 .bss           0x0000000000116220        0x0 /home/antonio/Projects/aPlus/src/fs/procfs/procfs_cwd.o
 .bss           0x0000000000116220        0x0 /home/antonio/Projects/aPlus/src/fs/procfs/procfs_filesystems.o
 .bss           0x0000000000116220        0x0 /home/antonio/Projects/aPlus/src/fs/procfs/procfs_environ.o
 .bss           0x0000000000116220        0x0 /home/antonio/Projects/aPlus/src/fs/procfs/procfs_meminfo.o
 .bss           0x0000000000116220       0x10 /home/antonio/Projects/aPlus/src/fs/procfs/procfs.o
 .bss           0x0000000000116230       0x10 /home/antonio/Projects/aPlus/src/fs/procfs/procfs_fd.o
 .bss           0x0000000000116240        0x0 /home/antonio/Projects/aPlus/src/fs/pipe.o
 .bss           0x0000000000116240      0x400 /home/antonio/Projects/aPlus/src/initrd.o
 .bss           0x0000000000116640     0x4000 /home/antonio/Projects/aPlus/src/arch/loader.o
                0x000000000011a640                initial_stack_ptr
 .bss           0x000000000011a640        0x0 /usr/local/cross/i586-elf/lib/libc.a(lib_a-errno.o)
 .bss           0x000000000011a640        0x0 /usr/local/cross/i586-elf/lib/libc.a(lib_a-impure.o)
 .bss           0x000000000011a640        0x0 /usr/local/cross/i586-elf/lib/libc.a(lib_a-memcpy.o)
 .bss           0x000000000011a640        0x0 /usr/local/cross/i586-elf/lib/libc.a(lib_a-memset.o)
 .bss           0x000000000011a640        0x0 /usr/local/cross/i586-elf/lib/libc.a(lib_a-mktime.o)
 .bss           0x000000000011a640        0x0 /usr/local/cross/i586-elf/lib/libc.a(lib_a-mktm_r.o)
 .bss           0x000000000011a640        0x0 /usr/local/cross/i586-elf/lib/libc.a(lib_a-signal.o)
 .bss           0x000000000011a640        0x0 /usr/local/cross/i586-elf/lib/libc.a(lib_a-signalr.o)
 .bss           0x000000000011a640        0x0 /usr/local/cross/i586-elf/lib/libc.a(lib_a-sprintf.o)
 .bss           0x000000000011a640        0x0 /usr/local/cross/i586-elf/lib/libc.a(lib_a-strcat.o)
 .bss           0x000000000011a640        0x0 /usr/local/cross/i586-elf/lib/libc.a(lib_a-strchr.o)
 .bss           0x000000000011a640        0x0 /usr/local/cross/i586-elf/lib/libc.a(lib_a-strcmp.o)
 .bss           0x000000000011a640        0x0 /usr/local/cross/i586-elf/lib/libc.a(lib_a-strcpy.o)
 .bss           0x000000000011a640        0x0 /usr/local/cross/i586-elf/lib/libc.a(lib_a-strdup.o)
 .bss           0x000000000011a640        0x0 /usr/local/cross/i586-elf/lib/libc.a(lib_a-strdup_r.o)
 .bss           0x000000000011a640        0x0 /usr/local/cross/i586-elf/lib/libc.a(lib_a-strlen.o)
 .bss           0x000000000011a640        0x0 /usr/local/cross/i586-elf/lib/libc.a(lib_a-strncpy.o)
 .bss           0x000000000011a640        0x0 /usr/local/cross/i586-elf/lib/libc.a(lib_a-svfprintf.o)
 .bss           0x000000000011a640        0x0 /usr/local/cross/i586-elf/lib/libc.a(lib_a-time.o)
 .bss           0x000000000011a640        0x0 /usr/local/cross/i586-elf/lib/libc.a(lib_a-tzlock.o)
 .bss           0x000000000011a640        0x8 /usr/local/cross/i586-elf/lib/libc.a(lib_a-tzvars.o)
                0x000000000011a640                _timezone
                0x000000000011a644                _daylight
 .bss           0x000000000011a648        0x0 /usr/local/cross/i586-elf/lib/libc.a(lib_a-vsprintf.o)
 .bss           0x000000000011a648        0x0 /usr/local/cross/i586-elf/lib/libc.a(lib_a-div.o)
 .bss           0x000000000011a648        0x0 /usr/local/cross/i586-elf/lib/libc.a(lib_a-dtoa.o)
 .bss           0x000000000011a648        0x0 /usr/local/cross/i586-elf/lib/libc.a(lib_a-gettimeofdayr.o)
 .bss           0x000000000011a648        0x0 /usr/local/cross/i586-elf/lib/libc.a(lib_a-gettzinfo.o)
 .bss           0x000000000011a648        0xc /usr/local/cross/i586-elf/lib/libc.a(lib_a-locale.o)
                0x000000000011a648                _PathLocale
                0x000000000011a64c                __mlocale_changed
                0x000000000011a650                __nlocale_changed
 .bss           0x000000000011a654        0x0 /usr/local/cross/i586-elf/lib/libc.a(lib_a-memchr.o)
 .bss           0x000000000011a654        0x0 /usr/local/cross/i586-elf/lib/libc.a(lib_a-mprec.o)
 .bss           0x000000000011a654        0x0 /usr/local/cross/i586-elf/lib/libc.a(lib_a-s_fpclassify.o)
 .bss           0x000000000011a654        0x0 /usr/local/cross/i586-elf/lib/libc.a(lib_a-svfiprintf.o)
 .bss           0x000000000011a654        0x0 /usr/local/cross/i586-elf/lib/libc.a(lib_a-memmove.o)
                0x000000000011b000                . = ALIGN (0x1000)
                0x000000000011c000                . = (. + 0x1000)

.syscall_handlers
                0x000000000011c000      0x180
                0x000000000011c000                syscall_handlers_start = .
                0x000000000011c000                _syscall_handlers_start = .
                0x000000000011c000                __syscall_handlers_start = .
 *(.syscall_handlers)
 .syscall_handlers
                0x000000000011c000      0x180 /home/antonio/Projects/aPlus/src/arch/syscall.o
                0x000000000011c000                syscall_handler__exit
                0x000000000011c00c                syscall_handler__chown
                0x000000000011c018                syscall_handler__close
                0x000000000011c024                syscall_handler(...)(long long,...)(char, void,...)
                0x000000000011c030                syscall_handler__fork
                0x000000000011c03c                syscall_handler__fstat
                0x000000000011c048                syscall_handler__getpid
                0x000000000011c054                syscall_handler_gettimeofday
                0x000000000011c060                syscall_handler__kill
                0x000000000011c06c                syscall_handler__link
                0x000000000011c078                syscall_handler__lseek
                0x000000000011c084                syscall_handler__open
                0x000000000011c090                syscall_handler__read
                0x000000000011c09c                syscall_handler__readlink
                0x000000000011c0a8                syscall_handler__stat
                0x000000000011c0b4                syscall_handler__symlink
                0x000000000011c0c0                syscall_handler__times
                0x000000000011c0cc                syscall_handler__unlink
                0x000000000011c0d8                syscall_handler__wait
                0x000000000011c0e4                syscall_handler__write
                0x000000000011c0f0                syscall_handler__readdir
                0x000000000011c0fc                syscall_handler_ioctl
                0x000000000011c108                syscall_handler_mount
                0x000000000011c114                syscall_handler_umount
                0x000000000011c120                syscall_handler_tell
                0x000000000011c12c                syscall_handler___get_argv
                0x000000000011c138                syscall_handler___get_env
                0x000000000011c144                syscall_handler_pipe
                0x000000000011c150                syscall_handler_chdir
                0x000000000011c15c                syscall_handler___install_signal_handler
                0x000000000011c168                syscall_handler_malloc
                0x000000000011c174                syscall_handler_free
                0x000000000011c180                syscall_handlers_end = .
                0x000000000011c180                _syscall_handlers_end = .
                0x000000000011c180                __syscall_handlers_end = .
                0x000000000011d180                . = (. + 0x1000)
                0x000000000011e000                . = ALIGN (0x1000)

.fsys           0x000000000011e000      0x240
                0x000000000011e000                fsys_start = .
                0x000000000011e000                _fsys_start = .
                0x000000000011e000                __fsys_start = .
 *(.fsys)
 .fsys          0x000000000011e000      0x120 /home/antonio/Projects/aPlus/src/fs/initfs/initfs_mount.o
                0x000000000011e000                fsys_initfs
 .fsys          0x000000000011e120      0x120 /home/antonio/Projects/aPlus/src/fs/procfs/procfs_mount.o
                0x000000000011e120                fsys_procfs
                0x000000000011e240                fsys_end = .
                0x000000000011e240                _fsys_end = .
                0x000000000011e240                __fsys_end = .
                0x000000000011f000                . = ALIGN (0x1000)
                0x0000000000120000                . = (. + 0x1000)
                0x0000000000120000                end = .
                0x0000000000120000                _end = .
                0x0000000000120000                __end = .
LOAD /home/antonio/Projects/aPlus/src/arch/task.o
LOAD /home/antonio/Projects/aPlus/src/arch/syscall.o
LOAD /home/antonio/Projects/aPlus/src/arch/mm.o
LOAD /home/antonio/Projects/aPlus/src/arch/desc.o
LOAD /home/antonio/Projects/aPlus/src/arch/screen.o
LOAD /home/antonio/Projects/aPlus/src/vfs.o
LOAD /home/antonio/Projects/aPlus/src/elf.o
LOAD /home/antonio/Projects/aPlus/src/panic.o
LOAD /home/antonio/Projects/aPlus/src/crt0.o
LOAD /home/antonio/Projects/aPlus/src/rootfs.o
LOAD /home/antonio/Projects/aPlus/src/tty.o
LOAD /home/antonio/Projects/aPlus/src/spinlock.o
LOAD /home/antonio/Projects/aPlus/src/main.o
LOAD /home/antonio/Projects/aPlus/src/fs/initfs/initfs_mount.o
LOAD /home/antonio/Projects/aPlus/src/fs/initfs/initfs.o
LOAD /home/antonio/Projects/aPlus/src/fs/ramdev.o
LOAD /home/antonio/Projects/aPlus/src/fs/procfs/procfs_task.o
LOAD /home/antonio/Projects/aPlus/src/fs/procfs/procfs_cmdline.o
LOAD /home/antonio/Projects/aPlus/src/fs/procfs/procfs_mount.o
LOAD /home/antonio/Projects/aPlus/src/fs/procfs/procfs_cwd.o
LOAD /home/antonio/Projects/aPlus/src/fs/procfs/procfs_filesystems.o
LOAD /home/antonio/Projects/aPlus/src/fs/procfs/procfs_environ.o
LOAD /home/antonio/Projects/aPlus/src/fs/procfs/procfs_meminfo.o
LOAD /home/antonio/Projects/aPlus/src/fs/procfs/procfs.o
LOAD /home/antonio/Projects/aPlus/src/fs/procfs/procfs_fd.o
LOAD /home/antonio/Projects/aPlus/src/fs/pipe.o
LOAD /home/antonio/Projects/aPlus/src/initrd.o
LOAD /home/antonio/Projects/aPlus/src/arch/loader.o
LOAD /home/antonio/Projects/aPlus/src/arch/_desc.o
LOAD /usr/local/cross/i586-elf/lib/libx86.a
LOAD /usr/local/cross/i586-elf/lib/libm.a
LOAD /usr/local/cross/i586-elf/lib/libc.a
LOAD /usr/local/cross/lib/gcc/i586-elf/4.8.2//libgcc.a
OUTPUT(/home/antonio/Projects/aPlus/bin/aplus.elf elf32-i386)

.comment        0x0000000000000000       0x11
 .comment       0x0000000000000000       0x11 /home/antonio/Projects/aPlus/src/arch/task.o
                                         0x12 (size before relaxing)
 .comment       0x0000000000000000       0x12 /home/antonio/Projects/aPlus/src/arch/syscall.o
 .comment       0x0000000000000000       0x12 /home/antonio/Projects/aPlus/src/arch/mm.o
 .comment       0x0000000000000000       0x12 /home/antonio/Projects/aPlus/src/arch/desc.o
 .comment       0x0000000000000000       0x12 /home/antonio/Projects/aPlus/src/arch/screen.o
 .comment       0x0000000000000000       0x12 /home/antonio/Projects/aPlus/src/vfs.o
 .comment       0x0000000000000000       0x12 /home/antonio/Projects/aPlus/src/elf.o
 .comment       0x0000000000000000       0x12 /home/antonio/Projects/aPlus/src/panic.o
 .comment       0x0000000000000000       0x12 /home/antonio/Projects/aPlus/src/crt0.o
 .comment       0x0000000000000000       0x12 /home/antonio/Projects/aPlus/src/rootfs.o
 .comment       0x0000000000000000       0x12 /home/antonio/Projects/aPlus/src/tty.o
 .comment       0x0000000000000000       0x12 /home/antonio/Projects/aPlus/src/spinlock.o
 .comment       0x0000000000000000       0x12 /home/antonio/Projects/aPlus/src/main.o
 .comment       0x0000000000000000       0x12 /home/antonio/Projects/aPlus/src/fs/initfs/initfs_mount.o
 .comment       0x0000000000000000       0x12 /home/antonio/Projects/aPlus/src/fs/initfs/initfs.o
 .comment       0x0000000000000000       0x12 /home/antonio/Projects/aPlus/src/fs/ramdev.o
 .comment       0x0000000000000000       0x12 /home/antonio/Projects/aPlus/src/fs/procfs/procfs_task.o
 .comment       0x0000000000000000       0x12 /home/antonio/Projects/aPlus/src/fs/procfs/procfs_cmdline.o
 .comment       0x0000000000000000       0x12 /home/antonio/Projects/aPlus/src/fs/procfs/procfs_mount.o
 .comment       0x0000000000000000       0x12 /home/antonio/Projects/aPlus/src/fs/procfs/procfs_cwd.o
 .comment       0x0000000000000000       0x12 /home/antonio/Projects/aPlus/src/fs/procfs/procfs_filesystems.o
 .comment       0x0000000000000000       0x12 /home/antonio/Projects/aPlus/src/fs/procfs/procfs_environ.o
 .comment       0x0000000000000000       0x12 /home/antonio/Projects/aPlus/src/fs/procfs/procfs_meminfo.o
 .comment       0x0000000000000000       0x12 /home/antonio/Projects/aPlus/src/fs/procfs/procfs.o
 .comment       0x0000000000000000       0x12 /home/antonio/Projects/aPlus/src/fs/procfs/procfs_fd.o
 .comment       0x0000000000000000       0x12 /home/antonio/Projects/aPlus/src/fs/pipe.o
 .comment       0x0000000000000000       0x12 /home/antonio/Projects/aPlus/src/initrd.o
 .comment       0x0000000000000000       0x12 /usr/local/cross/i586-elf/lib/libc.a(lib_a-errno.o)
 .comment       0x0000000000000000       0x12 /usr/local/cross/i586-elf/lib/libc.a(lib_a-impure.o)
 .comment       0x0000000000000000       0x12 /usr/local/cross/i586-elf/lib/libc.a(lib_a-mktime.o)
 .comment       0x0000000000000000       0x12 /usr/local/cross/i586-elf/lib/libc.a(lib_a-mktm_r.o)
 .comment       0x0000000000000000       0x12 /usr/local/cross/i586-elf/lib/libc.a(lib_a-signal.o)
 .comment       0x0000000000000000       0x12 /usr/local/cross/i586-elf/lib/libc.a(lib_a-signalr.o)
 .comment       0x0000000000000000       0x12 /usr/local/cross/i586-elf/lib/libc.a(lib_a-sprintf.o)
 .comment       0x0000000000000000       0x12 /usr/local/cross/i586-elf/lib/libc.a(lib_a-strcat.o)
 .comment       0x0000000000000000       0x12 /usr/local/cross/i586-elf/lib/libc.a(lib_a-strcmp.o)
 .comment       0x0000000000000000       0x12 /usr/local/cross/i586-elf/lib/libc.a(lib_a-strcpy.o)
 .comment       0x0000000000000000       0x12 /usr/local/cross/i586-elf/lib/libc.a(lib_a-strdup.o)
 .comment       0x0000000000000000       0x12 /usr/local/cross/i586-elf/lib/libc.a(lib_a-strdup_r.o)
 .comment       0x0000000000000000       0x12 /usr/local/cross/i586-elf/lib/libc.a(lib_a-strncpy.o)
 .comment       0x0000000000000000       0x12 /usr/local/cross/i586-elf/lib/libc.a(lib_a-svfprintf.o)
 .comment       0x0000000000000000       0x12 /usr/local/cross/i586-elf/lib/libc.a(lib_a-time.o)
 .comment       0x0000000000000000       0x12 /usr/local/cross/i586-elf/lib/libc.a(lib_a-tzlock.o)
 .comment       0x0000000000000000       0x12 /usr/local/cross/i586-elf/lib/libc.a(lib_a-tzvars.o)
 .comment       0x0000000000000000       0x12 /usr/local/cross/i586-elf/lib/libc.a(lib_a-vsprintf.o)
 .comment       0x0000000000000000       0x12 /usr/local/cross/i586-elf/lib/libc.a(lib_a-div.o)
 .comment       0x0000000000000000       0x12 /usr/local/cross/i586-elf/lib/libc.a(lib_a-dtoa.o)
 .comment       0x0000000000000000       0x12 /usr/local/cross/i586-elf/lib/libc.a(lib_a-gettimeofdayr.o)
 .comment       0x0000000000000000       0x12 /usr/local/cross/i586-elf/lib/libc.a(lib_a-gettzinfo.o)
 .comment       0x0000000000000000       0x12 /usr/local/cross/i586-elf/lib/libc.a(lib_a-locale.o)
 .comment       0x0000000000000000       0x12 /usr/local/cross/i586-elf/lib/libc.a(lib_a-mprec.o)
 .comment       0x0000000000000000       0x12 /usr/local/cross/i586-elf/lib/libc.a(lib_a-s_fpclassify.o)
 .comment       0x0000000000000000       0x12 /usr/local/cross/i586-elf/lib/libc.a(lib_a-svfiprintf.o)

.debug_info     0x0000000000000000     0xd0e7
 .debug_info    0x0000000000000000      0x889 /usr/local/cross/i586-elf/lib/libc.a(lib_a-errno.o)
 .debug_info    0x0000000000000889      0x894 /usr/local/cross/i586-elf/lib/libc.a(lib_a-impure.o)
 .debug_info    0x000000000000111d       0x9f /usr/local/cross/i586-elf/lib/libc.a(lib_a-memcpy.o)
 .debug_info    0x00000000000011bc       0x9f /usr/local/cross/i586-elf/lib/libc.a(lib_a-memset.o)
 .debug_info    0x000000000000125b      0x462 /usr/local/cross/i586-elf/lib/libc.a(lib_a-mktime.o)
 .debug_info    0x00000000000016bd      0x439 /usr/local/cross/i586-elf/lib/libc.a(lib_a-mktm_r.o)
 .debug_info    0x0000000000001af6      0xb83 /usr/local/cross/i586-elf/lib/libc.a(lib_a-signal.o)
 .debug_info    0x0000000000002679      0x94c /usr/local/cross/i586-elf/lib/libc.a(lib_a-signalr.o)
 .debug_info    0x0000000000002fc5      0x9e5 /usr/local/cross/i586-elf/lib/libc.a(lib_a-sprintf.o)
 .debug_info    0x00000000000039aa      0x118 /usr/local/cross/i586-elf/lib/libc.a(lib_a-strcat.o)
 .debug_info    0x0000000000003ac2       0x9f /usr/local/cross/i586-elf/lib/libc.a(lib_a-strchr.o)
 .debug_info    0x0000000000003b61       0xdd /usr/local/cross/i586-elf/lib/libc.a(lib_a-strcmp.o)
 .debug_info    0x0000000000003c3e      0x10f /usr/local/cross/i586-elf/lib/libc.a(lib_a-strcpy.o)
 .debug_info    0x0000000000003d4d      0x8be /usr/local/cross/i586-elf/lib/libc.a(lib_a-strdup.o)
 .debug_info    0x000000000000460b      0x963 /usr/local/cross/i586-elf/lib/libc.a(lib_a-strdup_r.o)
 .debug_info    0x0000000000004f6e       0x9f /usr/local/cross/i586-elf/lib/libc.a(lib_a-strlen.o)
 .debug_info    0x000000000000500d      0x129 /usr/local/cross/i586-elf/lib/libc.a(lib_a-strncpy.o)
 .debug_info    0x0000000000005136     0x16e3 /usr/local/cross/i586-elf/lib/libc.a(lib_a-svfprintf.o)
 .debug_info    0x0000000000006819      0x920 /usr/local/cross/i586-elf/lib/libc.a(lib_a-time.o)
 .debug_info    0x0000000000007139       0xa8 /usr/local/cross/i586-elf/lib/libc.a(lib_a-tzlock.o)
 .debug_info    0x00000000000071e1       0xbb /usr/local/cross/i586-elf/lib/libc.a(lib_a-tzvars.o)
 .debug_info    0x000000000000729c      0x9be /usr/local/cross/i586-elf/lib/libc.a(lib_a-vsprintf.o)
 .debug_info    0x0000000000007c5a       0xe5 /usr/local/cross/i586-elf/lib/libc.a(lib_a-div.o)
 .debug_info    0x0000000000007d3f     0x1398 /usr/local/cross/i586-elf/lib/libc.a(lib_a-dtoa.o)
 .debug_info    0x00000000000090d7      0x930 /usr/local/cross/i586-elf/lib/libc.a(lib_a-gettimeofdayr.o)
 .debug_info    0x0000000000009a07      0x160 /usr/local/cross/i586-elf/lib/libc.a(lib_a-gettzinfo.o)
 .debug_info    0x0000000000009b67      0xbe7 /usr/local/cross/i586-elf/lib/libc.a(lib_a-locale.o)
 .debug_info    0x000000000000a74e       0x9f /usr/local/cross/i586-elf/lib/libc.a(lib_a-memchr.o)
 .debug_info    0x000000000000a7ed     0x16c0 /usr/local/cross/i586-elf/lib/libc.a(lib_a-mprec.o)
 .debug_info    0x000000000000bead      0x145 /usr/local/cross/i586-elf/lib/libc.a(lib_a-s_fpclassify.o)
 .debug_info    0x000000000000bff2     0x1055 /usr/local/cross/i586-elf/lib/libc.a(lib_a-svfiprintf.o)
 .debug_info    0x000000000000d047       0xa0 /usr/local/cross/i586-elf/lib/libc.a(lib_a-memmove.o)

.debug_abbrev   0x0000000000000000     0x2b52
 .debug_abbrev  0x0000000000000000      0x18f /usr/local/cross/i586-elf/lib/libc.a(lib_a-errno.o)
 .debug_abbrev  0x000000000000018f      0x180 /usr/local/cross/i586-elf/lib/libc.a(lib_a-impure.o)
 .debug_abbrev  0x000000000000030f       0x14 /usr/local/cross/i586-elf/lib/libc.a(lib_a-memcpy.o)
 .debug_abbrev  0x0000000000000323       0x14 /usr/local/cross/i586-elf/lib/libc.a(lib_a-memset.o)
 .debug_abbrev  0x0000000000000337      0x1c6 /usr/local/cross/i586-elf/lib/libc.a(lib_a-mktime.o)
 .debug_abbrev  0x00000000000004fd      0x15c /usr/local/cross/i586-elf/lib/libc.a(lib_a-mktm_r.o)
 .debug_abbrev  0x0000000000000659      0x28c /usr/local/cross/i586-elf/lib/libc.a(lib_a-signal.o)
 .debug_abbrev  0x00000000000008e5      0x20c /usr/local/cross/i586-elf/lib/libc.a(lib_a-signalr.o)
 .debug_abbrev  0x0000000000000af1      0x216 /usr/local/cross/i586-elf/lib/libc.a(lib_a-sprintf.o)
 .debug_abbrev  0x0000000000000d07       0xce /usr/local/cross/i586-elf/lib/libc.a(lib_a-strcat.o)
 .debug_abbrev  0x0000000000000dd5       0x14 /usr/local/cross/i586-elf/lib/libc.a(lib_a-strchr.o)
 .debug_abbrev  0x0000000000000de9       0x74 /usr/local/cross/i586-elf/lib/libc.a(lib_a-strcmp.o)
 .debug_abbrev  0x0000000000000e5d       0x92 /usr/local/cross/i586-elf/lib/libc.a(lib_a-strcpy.o)
 .debug_abbrev  0x0000000000000eef      0x1ca /usr/local/cross/i586-elf/lib/libc.a(lib_a-strdup.o)
 .debug_abbrev  0x00000000000010b9      0x20d /usr/local/cross/i586-elf/lib/libc.a(lib_a-strdup_r.o)
 .debug_abbrev  0x00000000000012c6       0x14 /usr/local/cross/i586-elf/lib/libc.a(lib_a-strlen.o)
 .debug_abbrev  0x00000000000012da       0x9f /usr/local/cross/i586-elf/lib/libc.a(lib_a-strncpy.o)
 .debug_abbrev  0x0000000000001379      0x371 /usr/local/cross/i586-elf/lib/libc.a(lib_a-svfprintf.o)
 .debug_abbrev  0x00000000000016ea      0x1db /usr/local/cross/i586-elf/lib/libc.a(lib_a-time.o)
 .debug_abbrev  0x00000000000018c5       0x51 /usr/local/cross/i586-elf/lib/libc.a(lib_a-tzlock.o)
 .debug_abbrev  0x0000000000001916       0x52 /usr/local/cross/i586-elf/lib/libc.a(lib_a-tzvars.o)
 .debug_abbrev  0x0000000000001968      0x202 /usr/local/cross/i586-elf/lib/libc.a(lib_a-vsprintf.o)
 .debug_abbrev  0x0000000000001b6a       0xa9 /usr/local/cross/i586-elf/lib/libc.a(lib_a-div.o)
 .debug_abbrev  0x0000000000001c13      0x2da /usr/local/cross/i586-elf/lib/libc.a(lib_a-dtoa.o)
 .debug_abbrev  0x0000000000001eed      0x1e8 /usr/local/cross/i586-elf/lib/libc.a(lib_a-gettimeofdayr.o)
 .debug_abbrev  0x00000000000020d5       0xa8 /usr/local/cross/i586-elf/lib/libc.a(lib_a-gettzinfo.o)
 .debug_abbrev  0x000000000000217d      0x295 /usr/local/cross/i586-elf/lib/libc.a(lib_a-locale.o)
 .debug_abbrev  0x0000000000002412       0x14 /usr/local/cross/i586-elf/lib/libc.a(lib_a-memchr.o)
 .debug_abbrev  0x0000000000002426      0x3a3 /usr/local/cross/i586-elf/lib/libc.a(lib_a-mprec.o)
 .debug_abbrev  0x00000000000027c9       0xca /usr/local/cross/i586-elf/lib/libc.a(lib_a-s_fpclassify.o)
 .debug_abbrev  0x0000000000002893      0x2ab /usr/local/cross/i586-elf/lib/libc.a(lib_a-svfiprintf.o)
 .debug_abbrev  0x0000000000002b3e       0x14 /usr/local/cross/i586-elf/lib/libc.a(lib_a-memmove.o)

.debug_aranges  0x0000000000000000      0x3f0
 .debug_aranges
                0x0000000000000000       0x20 /usr/local/cross/i586-elf/lib/libc.a(lib_a-errno.o)
 .debug_aranges
                0x0000000000000020       0x18 /usr/local/cross/i586-elf/lib/libc.a(lib_a-impure.o)
 .debug_aranges
                0x0000000000000038       0x20 /usr/local/cross/i586-elf/lib/libc.a(lib_a-memcpy.o)
 .debug_aranges
                0x0000000000000058       0x20 /usr/local/cross/i586-elf/lib/libc.a(lib_a-memset.o)
 .debug_aranges
                0x0000000000000078       0x20 /usr/local/cross/i586-elf/lib/libc.a(lib_a-mktime.o)
 .debug_aranges
                0x0000000000000098       0x20 /usr/local/cross/i586-elf/lib/libc.a(lib_a-mktm_r.o)
 .debug_aranges
                0x00000000000000b8       0x20 /usr/local/cross/i586-elf/lib/libc.a(lib_a-signal.o)
 .debug_aranges
                0x00000000000000d8       0x20 /usr/local/cross/i586-elf/lib/libc.a(lib_a-signalr.o)
 .debug_aranges
                0x00000000000000f8       0x20 /usr/local/cross/i586-elf/lib/libc.a(lib_a-sprintf.o)
 .debug_aranges
                0x0000000000000118       0x20 /usr/local/cross/i586-elf/lib/libc.a(lib_a-strcat.o)
 .debug_aranges
                0x0000000000000138       0x20 /usr/local/cross/i586-elf/lib/libc.a(lib_a-strchr.o)
 .debug_aranges
                0x0000000000000158       0x20 /usr/local/cross/i586-elf/lib/libc.a(lib_a-strcmp.o)
 .debug_aranges
                0x0000000000000178       0x20 /usr/local/cross/i586-elf/lib/libc.a(lib_a-strcpy.o)
 .debug_aranges
                0x0000000000000198       0x20 /usr/local/cross/i586-elf/lib/libc.a(lib_a-strdup.o)
 .debug_aranges
                0x00000000000001b8       0x20 /usr/local/cross/i586-elf/lib/libc.a(lib_a-strdup_r.o)
 .debug_aranges
                0x00000000000001d8       0x20 /usr/local/cross/i586-elf/lib/libc.a(lib_a-strlen.o)
 .debug_aranges
                0x00000000000001f8       0x20 /usr/local/cross/i586-elf/lib/libc.a(lib_a-strncpy.o)
 .debug_aranges
                0x0000000000000218       0x20 /usr/local/cross/i586-elf/lib/libc.a(lib_a-svfprintf.o)
 .debug_aranges
                0x0000000000000238       0x20 /usr/local/cross/i586-elf/lib/libc.a(lib_a-time.o)
 .debug_aranges
                0x0000000000000258       0x20 /usr/local/cross/i586-elf/lib/libc.a(lib_a-tzlock.o)
 .debug_aranges
                0x0000000000000278       0x18 /usr/local/cross/i586-elf/lib/libc.a(lib_a-tzvars.o)
 .debug_aranges
                0x0000000000000290       0x20 /usr/local/cross/i586-elf/lib/libc.a(lib_a-vsprintf.o)
 .debug_aranges
                0x00000000000002b0       0x20 /usr/local/cross/i586-elf/lib/libc.a(lib_a-div.o)
 .debug_aranges
                0x00000000000002d0       0x20 /usr/local/cross/i586-elf/lib/libc.a(lib_a-dtoa.o)
 .debug_aranges
                0x00000000000002f0       0x20 /usr/local/cross/i586-elf/lib/libc.a(lib_a-gettimeofdayr.o)
 .debug_aranges
                0x0000000000000310       0x20 /usr/local/cross/i586-elf/lib/libc.a(lib_a-gettzinfo.o)
 .debug_aranges
                0x0000000000000330       0x20 /usr/local/cross/i586-elf/lib/libc.a(lib_a-locale.o)
 .debug_aranges
                0x0000000000000350       0x20 /usr/local/cross/i586-elf/lib/libc.a(lib_a-memchr.o)
 .debug_aranges
                0x0000000000000370       0x20 /usr/local/cross/i586-elf/lib/libc.a(lib_a-mprec.o)
 .debug_aranges
                0x0000000000000390       0x20 /usr/local/cross/i586-elf/lib/libc.a(lib_a-s_fpclassify.o)
 .debug_aranges
                0x00000000000003b0       0x20 /usr/local/cross/i586-elf/lib/libc.a(lib_a-svfiprintf.o)
 .debug_aranges
                0x00000000000003d0       0x20 /usr/local/cross/i586-elf/lib/libc.a(lib_a-memmove.o)

.debug_line     0x0000000000000000     0x3a5e
 .debug_line    0x0000000000000000       0xfc /usr/local/cross/i586-elf/lib/libc.a(lib_a-errno.o)
 .debug_line    0x00000000000000fc       0xe2 /usr/local/cross/i586-elf/lib/libc.a(lib_a-impure.o)
 .debug_line    0x00000000000001de       0x93 /usr/local/cross/i586-elf/lib/libc.a(lib_a-memcpy.o)
 .debug_line    0x0000000000000271       0xac /usr/local/cross/i586-elf/lib/libc.a(lib_a-memset.o)
 .debug_line    0x000000000000031d      0x2ed /usr/local/cross/i586-elf/lib/libc.a(lib_a-mktime.o)
 .debug_line    0x000000000000060a      0x30a /usr/local/cross/i586-elf/lib/libc.a(lib_a-mktm_r.o)
 .debug_line    0x0000000000000914      0x1d6 /usr/local/cross/i586-elf/lib/libc.a(lib_a-signal.o)
 .debug_line    0x0000000000000aea      0x14d /usr/local/cross/i586-elf/lib/libc.a(lib_a-signalr.o)
 .debug_line    0x0000000000000c37      0x15e /usr/local/cross/i586-elf/lib/libc.a(lib_a-sprintf.o)
 .debug_line    0x0000000000000d95       0xb1 /usr/local/cross/i586-elf/lib/libc.a(lib_a-strcat.o)
 .debug_line    0x0000000000000e46       0xd7 /usr/local/cross/i586-elf/lib/libc.a(lib_a-strchr.o)
 .debug_line    0x0000000000000f1d       0xc0 /usr/local/cross/i586-elf/lib/libc.a(lib_a-strcmp.o)
 .debug_line    0x0000000000000fdd       0xb6 /usr/local/cross/i586-elf/lib/libc.a(lib_a-strcpy.o)
 .debug_line    0x0000000000001093      0x129 /usr/local/cross/i586-elf/lib/libc.a(lib_a-strdup.o)
 .debug_line    0x00000000000011bc      0x13b /usr/local/cross/i586-elf/lib/libc.a(lib_a-strdup_r.o)
 .debug_line    0x00000000000012f7       0xa3 /usr/local/cross/i586-elf/lib/libc.a(lib_a-strlen.o)
 .debug_line    0x000000000000139a      0x110 /usr/local/cross/i586-elf/lib/libc.a(lib_a-strncpy.o)
 .debug_line    0x00000000000014aa      0x8c9 /usr/local/cross/i586-elf/lib/libc.a(lib_a-svfprintf.o)
 .debug_line    0x0000000000001d73      0x141 /usr/local/cross/i586-elf/lib/libc.a(lib_a-time.o)
 .debug_line    0x0000000000001eb4       0x66 /usr/local/cross/i586-elf/lib/libc.a(lib_a-tzlock.o)
 .debug_line    0x0000000000001f1a       0x51 /usr/local/cross/i586-elf/lib/libc.a(lib_a-tzvars.o)
 .debug_line    0x0000000000001f6b      0x152 /usr/local/cross/i586-elf/lib/libc.a(lib_a-vsprintf.o)
 .debug_line    0x00000000000020bd       0xba /usr/local/cross/i586-elf/lib/libc.a(lib_a-div.o)
 .debug_line    0x0000000000002177      0x6ed /usr/local/cross/i586-elf/lib/libc.a(lib_a-dtoa.o)
 .debug_line    0x0000000000002864      0x14e /usr/local/cross/i586-elf/lib/libc.a(lib_a-gettimeofdayr.o)
 .debug_line    0x00000000000029b2       0xd6 /usr/local/cross/i586-elf/lib/libc.a(lib_a-gettzinfo.o)
 .debug_line    0x0000000000002a88      0x17f /usr/local/cross/i586-elf/lib/libc.a(lib_a-locale.o)
 .debug_line    0x0000000000002c07       0xb0 /usr/local/cross/i586-elf/lib/libc.a(lib_a-memchr.o)
 .debug_line    0x0000000000002cb7      0x625 /usr/local/cross/i586-elf/lib/libc.a(lib_a-mprec.o)
 .debug_line    0x00000000000032dc      0x10e /usr/local/cross/i586-elf/lib/libc.a(lib_a-s_fpclassify.o)
 .debug_line    0x00000000000033ea      0x5b8 /usr/local/cross/i586-elf/lib/libc.a(lib_a-svfiprintf.o)
 .debug_line    0x00000000000039a2       0xbc /usr/local/cross/i586-elf/lib/libc.a(lib_a-memmove.o)

.debug_str      0x0000000000000000     0x147d
 .debug_str     0x0000000000000000      0x497 /usr/local/cross/i586-elf/lib/libc.a(lib_a-errno.o)
                                        0x501 (size before relaxing)
 .debug_str     0x0000000000000497       0x87 /usr/local/cross/i586-elf/lib/libc.a(lib_a-impure.o)
                                        0x519 (size before relaxing)
 .debug_str     0x000000000000051e      0x187 /usr/local/cross/i586-elf/lib/libc.a(lib_a-mktime.o)
                                        0x2be (size before relaxing)
 .debug_str     0x00000000000006a5       0x9f /usr/local/cross/i586-elf/lib/libc.a(lib_a-mktm_r.o)
                                        0x2a5 (size before relaxing)
 .debug_str     0x0000000000000744       0xe7 /usr/local/cross/i586-elf/lib/libc.a(lib_a-signal.o)
                                        0x58f (size before relaxing)
 .debug_str     0x000000000000082b       0x4a /usr/local/cross/i586-elf/lib/libc.a(lib_a-signalr.o)
                                        0x519 (size before relaxing)
 .debug_str     0x0000000000000875       0xa2 /usr/local/cross/i586-elf/lib/libc.a(lib_a-sprintf.o)
                                        0x549 (size before relaxing)
 .debug_str     0x0000000000000917       0x83 /usr/local/cross/i586-elf/lib/libc.a(lib_a-strcat.o)
                                        0x153 (size before relaxing)
 .debug_str     0x000000000000099a       0x3f /usr/local/cross/i586-elf/lib/libc.a(lib_a-strcmp.o)
                                        0x141 (size before relaxing)
 .debug_str     0x00000000000009d9       0x5a /usr/local/cross/i586-elf/lib/libc.a(lib_a-strcpy.o)
                                        0x163 (size before relaxing)
 .debug_str     0x0000000000000a33       0x49 /usr/local/cross/i586-elf/lib/libc.a(lib_a-strdup.o)
                                        0x50d (size before relaxing)
 .debug_str     0x0000000000000a7c       0x57 /usr/local/cross/i586-elf/lib/libc.a(lib_a-strdup_r.o)
                                        0x52a (size before relaxing)
 .debug_str     0x0000000000000ad3       0x41 /usr/local/cross/i586-elf/lib/libc.a(lib_a-strncpy.o)
                                        0x172 (size before relaxing)
 .debug_str     0x0000000000000b14      0x31f /usr/local/cross/i586-elf/lib/libc.a(lib_a-svfprintf.o)
                                        0x8a6 (size before relaxing)
 .debug_str     0x0000000000000e33       0x5f /usr/local/cross/i586-elf/lib/libc.a(lib_a-time.o)
                                        0x535 (size before relaxing)
 .debug_str     0x0000000000000e92       0x47 /usr/local/cross/i586-elf/lib/libc.a(lib_a-tzlock.o)
                                        0x15d (size before relaxing)
 .debug_str     0x0000000000000ed9       0x48 /usr/local/cross/i586-elf/lib/libc.a(lib_a-tzvars.o)
                                        0x152 (size before relaxing)
 .debug_str     0x0000000000000f21       0x4e /usr/local/cross/i586-elf/lib/libc.a(lib_a-vsprintf.o)
                                        0x54c (size before relaxing)
 .debug_str     0x0000000000000f6f       0x6d /usr/local/cross/i586-elf/lib/libc.a(lib_a-div.o)
                                        0x148 (size before relaxing)
 .debug_str     0x0000000000000fdc      0x154 /usr/local/cross/i586-elf/lib/libc.a(lib_a-dtoa.o)
                                        0x66b (size before relaxing)
 .debug_str     0x0000000000001130       0x5e /usr/local/cross/i586-elf/lib/libc.a(lib_a-gettimeofdayr.o)
                                        0x555 (size before relaxing)
 .debug_str     0x000000000000118e       0x39 /usr/local/cross/i586-elf/lib/libc.a(lib_a-gettzinfo.o)
                                        0x1b9 (size before relaxing)
 .debug_str     0x00000000000011c7      0x14a /usr/local/cross/i586-elf/lib/libc.a(lib_a-locale.o)
                                        0x776 (size before relaxing)
 .debug_str     0x0000000000001311       0xa2 /usr/local/cross/i586-elf/lib/libc.a(lib_a-mprec.o)
                                        0x625 (size before relaxing)
 .debug_str     0x00000000000013b3       0x92 /usr/local/cross/i586-elf/lib/libc.a(lib_a-s_fpclassify.o)
                                        0x19a (size before relaxing)
 .debug_str     0x0000000000001445       0x38 /usr/local/cross/i586-elf/lib/libc.a(lib_a-svfiprintf.o)
                                        0x6a9 (size before relaxing)

.debug_loc      0x0000000000000000     0x8a0a
 .debug_loc     0x0000000000000000      0x557 /usr/local/cross/i586-elf/lib/libc.a(lib_a-mktime.o)
 .debug_loc     0x0000000000000557      0x4ec /usr/local/cross/i586-elf/lib/libc.a(lib_a-mktm_r.o)
 .debug_loc     0x0000000000000a43       0x72 /usr/local/cross/i586-elf/lib/libc.a(lib_a-signal.o)
 .debug_loc     0x0000000000000ab5       0x5a /usr/local/cross/i586-elf/lib/libc.a(lib_a-sprintf.o)
 .debug_loc     0x0000000000000b0f       0x5c /usr/local/cross/i586-elf/lib/libc.a(lib_a-strcat.o)
 .debug_loc     0x0000000000000b6b       0x94 /usr/local/cross/i586-elf/lib/libc.a(lib_a-strcmp.o)
 .debug_loc     0x0000000000000bff       0xbe /usr/local/cross/i586-elf/lib/libc.a(lib_a-strcpy.o)
 .debug_loc     0x0000000000000cbd       0x3c /usr/local/cross/i586-elf/lib/libc.a(lib_a-strdup_r.o)
 .debug_loc     0x0000000000000cf9      0x180 /usr/local/cross/i586-elf/lib/libc.a(lib_a-strncpy.o)
 .debug_loc     0x0000000000000e79     0x27af /usr/local/cross/i586-elf/lib/libc.a(lib_a-svfprintf.o)
 .debug_loc     0x0000000000003628       0xb7 /usr/local/cross/i586-elf/lib/libc.a(lib_a-div.o)
 .debug_loc     0x00000000000036df     0x26c4 /usr/local/cross/i586-elf/lib/libc.a(lib_a-dtoa.o)
 .debug_loc     0x0000000000005da3     0x17c5 /usr/local/cross/i586-elf/lib/libc.a(lib_a-mprec.o)
 .debug_loc     0x0000000000007568       0x7c /usr/local/cross/i586-elf/lib/libc.a(lib_a-s_fpclassify.o)
 .debug_loc     0x00000000000075e4     0x1426 /usr/local/cross/i586-elf/lib/libc.a(lib_a-svfiprintf.o)

.debug_ranges   0x0000000000000000      0x238
 .debug_ranges  0x0000000000000000       0x50 /usr/local/cross/i586-elf/lib/libc.a(lib_a-mktime.o)
 .debug_ranges  0x0000000000000050       0x48 /usr/local/cross/i586-elf/lib/libc.a(lib_a-mktm_r.o)
 .debug_ranges  0x0000000000000098      0x120 /usr/local/cross/i586-elf/lib/libc.a(lib_a-svfprintf.o)
 .debug_ranges  0x00000000000001b8       0x48 /usr/local/cross/i586-elf/lib/libc.a(lib_a-mprec.o)
 .debug_ranges  0x0000000000000200       0x38 /usr/local/cross/i586-elf/lib/libc.a(lib_a-svfiprintf.o)
